target datalayout = "e-m:e-p270:32:32-p271:32:32-p272:64:64-i64:64-i128:128-f80:128-n8:16:32:64-S128"
target triple = "x86_64-pc-linux-gnu"

%struct.WalRcvData = type { i32, i32, i32, %struct.ConditionVariable, i64, i64, i32, i64, i32, i64, i64, i64, i64, i64, [1024 x i8], [1025 x i8], i32, [64 x i8], i8, i8, i8, %struct.pg_atomic_uint64, i32 }
%struct.ConditionVariable = type { i8, %struct.proclist_head }
%struct.proclist_head = type { i32, i32 }
%struct.pg_atomic_uint64 = type { i64 }
%struct.WalReceiverFunctionsType = type { ptr, ptr, ptr, ptr, ptr, ptr, ptr, ptr, ptr, ptr, ptr, ptr, ptr, ptr, ptr, ptr, ptr }

@WalReceiverFunctions = dso_local global ptr null, align 8
@.str.1 = private unnamed_addr constant [14 x i8] c"walreceiver.c\00", align 1
@WalRcv = external global ptr, align 8
@wrconn = internal global ptr null, align 8
@__func__.WalRcvDie = private unnamed_addr constant [10 x i8] c"WalRcvDie\00", align 1

; Function Attrs: inlinehint nounwind uwtable
define internal i32 @tas(ptr noundef %0) #6 {
  %2 = alloca ptr, align 8
  %3 = alloca i8, align 1
  store ptr %0, ptr %2, align 8
  call void @llvm.lifetime.start.p0(i64 1, ptr %3) #16
  store i8 1, ptr %3, align 1
  %4 = load i8, ptr %3, align 1
  %5 = load ptr, ptr %2, align 8
  %6 = call i8 asm sideeffect "\09lock\09\09\09\0A\09xchgb\09$0,$1\09\0A", "=q,=*m,0,*m,~{memory},~{cc},~{dirflag},~{fpsr},~{flags}"(ptr elementtype(i8) %5, i8 %4, ptr elementtype(i8) %5) #16, !srcloc !16
  store i8 %6, ptr %3, align 1
  %7 = load i8, ptr %3, align 1
  %8 = zext i8 %7 to i32
  call void @llvm.lifetime.end.p0(i64 1, ptr %3) #16
  ret i32 %8
}

; Function Attrs: inlinehint nounwind uwtable
define internal ptr @DatumGetPointer(i64 noundef %0) #6 {
  %2 = alloca i64, align 8
  store i64 %0, ptr %2, align 8
  %3 = load i64, ptr %2, align 8
  %4 = inttoptr i64 %3 to ptr
  ret ptr %4
}

; Function Attrs: nounwind uwtable
define internal void @WalRcvDie(i32 noundef %0, i64 noundef %1) #0 {
  %3 = alloca i32, align 4
  %4 = alloca i64, align 8
  %5 = alloca ptr, align 8
  %6 = alloca ptr, align 8
  store i32 %0, ptr %3, align 4
  store i64 %1, ptr %4, align 8
  call void @llvm.lifetime.start.p0(i64 8, ptr %5) #16
  %7 = load ptr, ptr @WalRcv, align 8
  store ptr %7, ptr %5, align 8
  call void @llvm.lifetime.start.p0(i64 8, ptr %6) #16
  %8 = load i64, ptr %4, align 8
  %9 = call ptr @DatumGetPointer(i64 noundef %8)
  store ptr %9, ptr %6, align 8
  %10 = load ptr, ptr %6, align 8
  %11 = load i32, ptr %10, align 4
  call void @XLogWalRcvFlush(i1 noundef zeroext true, i32 noundef %11)
  %12 = load ptr, ptr %5, align 8
  %13 = getelementptr inbounds nuw %struct.WalRcvData, ptr %12, i32 0, i32 20
  %14 = call i32 @tas(ptr noundef %13)
  %15 = icmp ne i32 %14, 0
  br i1 %15, label %16, label %20

16:                                               ; preds = %2
  %17 = load ptr, ptr %5, align 8
  %18 = getelementptr inbounds nuw %struct.WalRcvData, ptr %17, i32 0, i32 20
  %19 = call i32 @s_lock(ptr noundef %18, ptr noundef @.str.1, i32 noundef 813, ptr noundef @__func__.WalRcvDie)
  br label %21

20:                                               ; preds = %2
  br label %21

21:                                               ; preds = %20, %16
  %22 = load ptr, ptr %5, align 8
  %23 = getelementptr inbounds nuw %struct.WalRcvData, ptr %22, i32 0, i32 2
  store i32 0, ptr %23, align 8
  %24 = load ptr, ptr %5, align 8
  %25 = getelementptr inbounds nuw %struct.WalRcvData, ptr %24, i32 0, i32 1
  store i32 0, ptr %25, align 4
  %26 = load ptr, ptr %5, align 8
  %27 = getelementptr inbounds nuw %struct.WalRcvData, ptr %26, i32 0, i32 0
  store i32 -1, ptr %27, align 8
  %28 = load ptr, ptr %5, align 8
  %29 = getelementptr inbounds nuw %struct.WalRcvData, ptr %28, i32 0, i32 19
  store i8 0, ptr %29, align 1
  br label %30

30:                                               ; preds = %21
  call void asm sideeffect "", "~{memory},~{dirflag},~{fpsr},~{flags}"() #16, !srcloc !17
  %31 = load ptr, ptr %5, align 8
  %32 = getelementptr inbounds nuw %struct.WalRcvData, ptr %31, i32 0, i32 20
  store i8 0, ptr %32, align 2
  br label %33

33:                                               ; preds = %30
  br label %34

34:                                               ; preds = %33
  %35 = load ptr, ptr %5, align 8
  %36 = getelementptr inbounds nuw %struct.WalRcvData, ptr %35, i32 0, i32 3
  call void @ConditionVariableBroadcast(ptr noundef %36)
  %37 = load ptr, ptr @wrconn, align 8
  %38 = icmp ne ptr %37, null
  br i1 %38, label %39, label %44

39:                                               ; preds = %34
  %40 = load ptr, ptr @WalReceiverFunctions, align 8
  %41 = getelementptr inbounds nuw %struct.WalReceiverFunctionsType, ptr %40, i32 0, i32 16
  %42 = load ptr, ptr %41, align 8
  %43 = load ptr, ptr @wrconn, align 8
  call void %42(ptr noundef %43)
  br label %44

44:                                               ; preds = %39, %34
  call void @WakeupRecovery()
  call void @llvm.lifetime.end.p0(i64 8, ptr %6) #16
  call void @llvm.lifetime.end.p0(i64 8, ptr %5) #16
  ret void
}