; Function Attrs: nounwind uwtable
define internal void @WalRcvDie(i32 %0, i64 noundef %1) #0 {
  %3 = load ptr, ptr @WalRcv, align 8
  %4 = inttoptr i64 %1 to ptr
  %5 = load i32, ptr %4, align 4
  tail call fastcc void @XLogWalRcvFlush(i1 noundef zeroext true, i32 noundef %5)
  %6 = getelementptr inbounds nuw i8, ptr %3, i64 2226
  %7 = tail call i8 asm sideeffect "\09lock\09\09\09\0A\09xchgb\09$0,$1\09\0A", "=q,=*m,0,*m,~{memory},~{cc},~{dirflag},~{fpsr},~{flags}"(ptr nonnull elementtype(i8) %6, i8 1, ptr nonnull elementtype(i8) %6) #16, !srcloc !5
  %.not = icmp eq i8 %7, 0
  br i1 %.not, label %10, label %8

8:                                                ; preds = %2
  %9 = tail call i32 @s_lock(ptr noundef nonnull %6, ptr noundef nonnull @.str.1, i32 noundef 813, ptr noundef nonnull @__func__.WalRcvDie) #16
  br label %10

10:                                               ; preds = %2, %8
  %11 = getelementptr inbounds nuw i8, ptr %3, i64 8
  store i32 0, ptr %11, align 8
  %12 = getelementptr inbounds nuw i8, ptr %3, i64 4
  store i32 0, ptr %12, align 4
  store i32 -1, ptr %3, align 8
  %13 = getelementptr inbounds nuw i8, ptr %3, i64 2225
  store i8 0, ptr %13, align 1
  tail call void asm sideeffect "", "~{memory},~{dirflag},~{fpsr},~{flags}"() #16, !srcloc !23
  store i8 0, ptr %6, align 2
  %14 = getelementptr inbounds nuw i8, ptr %3, i64 12
  tail call void @ConditionVariableBroadcast(ptr noundef nonnull %14) #16
  %15 = load ptr, ptr @wrconn, align 8
  %.not9 = icmp eq ptr %15, null
  br i1 %.not9, label %20, label %16

16:                                               ; preds = %10
  %17 = load ptr, ptr @WalReceiverFunctions, align 8
  %18 = getelementptr inbounds nuw i8, ptr %17, i64 128
  %19 = load ptr, ptr %18, align 8
  tail call void %19(ptr noundef nonnull %15) #16
  br label %20

20:                                               ; preds = %16, %10
  tail call void @WakeupRecovery() #16
  ret void
}